target datalayout = "e-m:e-p270:32:32-p271:32:32-p272:64:64-i64:64-i128:128-f80:128-n8:16:32:64-S128"
target triple = "x86_64-pc-linux-gnu"

; Function Attrs: nounwind uwtable
define internal zeroext i8 @clip_pixel(i32 noundef %0) #0 {
  %2 = alloca i32, align 4
  store i32 %0, ptr %2, align 4
  %3 = load i32, ptr %2, align 4
  %4 = icmp sgt i32 %3, 255
  br i1 %4, label %5, label %6

5:                                                ; preds = %1
  br label %14

6:                                                ; preds = %1
  %7 = load i32, ptr %2, align 4
  %8 = icmp slt i32 %7, 0
  br i1 %8, label %9, label %10

9:                                                ; preds = %6
  br label %12

10:                                               ; preds = %6
  %11 = load i32, ptr %2, align 4
  br label %12

12:                                               ; preds = %10, %9
  %13 = phi i32 [ 0, %9 ], [ %11, %10 ]
  br label %14

14:                                               ; preds = %12, %5
  %15 = phi i32 [ 255, %5 ], [ %13, %12 ]
  %16 = trunc i32 %15 to i8
  ret i8 %16
}

; Function Attrs: nounwind uwtable
define hidden void @av1_convolve_horiz_rs_c(ptr noundef %0, i32 noundef %1, ptr noundef %2, i32 noundef %3, i32 noundef %4, i32 noundef %5, ptr noundef %6, i32 noundef %7, i32 noundef %8) #0 {
  %10 = alloca ptr, align 8
  %11 = alloca i32, align 4
  %12 = alloca ptr, align 8
  %13 = alloca i32, align 4
  %14 = alloca i32, align 4
  %15 = alloca i32, align 4
  %16 = alloca ptr, align 8
  %17 = alloca i32, align 4
  %18 = alloca i32, align 4
  %19 = alloca i32, align 4
  %20 = alloca i32, align 4
  %21 = alloca i32, align 4
  %22 = alloca ptr, align 8
  %23 = alloca i32, align 4
  %24 = alloca ptr, align 8
  %25 = alloca i32, align 4
  %26 = alloca i32, align 4
  store ptr %0, ptr %10, align 8
  store i32 %1, ptr %11, align 4
  store ptr %2, ptr %12, align 8
  store i32 %3, ptr %13, align 4
  store i32 %4, ptr %14, align 4
  store i32 %5, ptr %15, align 4
  store ptr %6, ptr %16, align 8
  store i32 %7, ptr %17, align 4
  store i32 %8, ptr %18, align 4
  %27 = load ptr, ptr %10, align 8
  %28 = getelementptr inbounds i8, ptr %27, i64 -3
  store ptr %28, ptr %10, align 8
  store i32 0, ptr %19, align 4
  br label %29

29:                                               ; preds = %99, %9
  %30 = load i32, ptr %19, align 4
  %31 = load i32, ptr %15, align 4
  %32 = icmp slt i32 %30, %31
  br i1 %32, label %33, label %102

33:                                               ; preds = %29
  %34 = load i32, ptr %17, align 4
  store i32 %34, ptr %20, align 4
  store i32 0, ptr %21, align 4
  br label %35

35:                                               ; preds = %87, %33
  %36 = load i32, ptr %21, align 4
  %37 = load i32, ptr %14, align 4
  %38 = icmp slt i32 %36, %37
  br i1 %38, label %39, label %90

39:                                               ; preds = %35
  %40 = load ptr, ptr %10, align 8
  %41 = load i32, ptr %20, align 4
  %42 = ashr i32 %41, 14
  %43 = sext i32 %42 to i64
  %44 = getelementptr inbounds i8, ptr %40, i64 %43
  store ptr %44, ptr %22, align 8
  %45 = load i32, ptr %20, align 4
  %46 = and i32 %45, 16383
  %47 = ashr i32 %46, 8
  store i32 %47, ptr %23, align 4
  %48 = load ptr, ptr %16, align 8
  %49 = load i32, ptr %23, align 4
  %50 = mul nsw i32 %49, 8
  %51 = sext i32 %50 to i64
  %52 = getelementptr inbounds i16, ptr %48, i64 %51
  store ptr %52, ptr %24, align 8
  store i32 0, ptr %25, align 4
  store i32 0, ptr %26, align 4
  br label %53

53:                                               ; preds = %72, %39
  %54 = load i32, ptr %26, align 4
  %55 = icmp slt i32 %54, 8
  br i1 %55, label %56, label %75

56:                                               ; preds = %53
  %57 = load ptr, ptr %22, align 8
  %58 = load i32, ptr %26, align 4
  %59 = sext i32 %58 to i64
  %60 = getelementptr inbounds i8, ptr %57, i64 %59
  %61 = load i8, ptr %60, align 1
  %62 = zext i8 %61 to i32
  %63 = load ptr, ptr %24, align 8
  %64 = load i32, ptr %26, align 4
  %65 = sext i32 %64 to i64
  %66 = getelementptr inbounds i16, ptr %63, i64 %65
  %67 = load i16, ptr %66, align 2
  %68 = sext i16 %67 to i32
  %69 = mul nsw i32 %62, %68
  %70 = load i32, ptr %25, align 4
  %71 = add nsw i32 %70, %69
  store i32 %71, ptr %25, align 4
  br label %72

72:                                               ; preds = %56
  %73 = load i32, ptr %26, align 4
  %74 = add nsw i32 %73, 1
  store i32 %74, ptr %26, align 4
  br label %53, !llvm.loop !4

75:                                               ; preds = %53
  %76 = load i32, ptr %25, align 4
  %77 = add nsw i32 %76, 64
  %78 = ashr i32 %77, 7
  %79 = call zeroext i8 @clip_pixel(i32 noundef %78)
  %80 = load ptr, ptr %12, align 8
  %81 = load i32, ptr %21, align 4
  %82 = sext i32 %81 to i64
  %83 = getelementptr inbounds i8, ptr %80, i64 %82
  store i8 %79, ptr %83, align 1
  %84 = load i32, ptr %18, align 4
  %85 = load i32, ptr %20, align 4
  %86 = add nsw i32 %85, %84
  store i32 %86, ptr %20, align 4
  br label %87

87:                                               ; preds = %75
  %88 = load i32, ptr %21, align 4
  %89 = add nsw i32 %88, 1
  store i32 %89, ptr %21, align 4
  br label %35, !llvm.loop !6

90:                                               ; preds = %35
  %91 = load i32, ptr %11, align 4
  %92 = load ptr, ptr %10, align 8
  %93 = sext i32 %91 to i64
  %94 = getelementptr inbounds i8, ptr %92, i64 %93
  store ptr %94, ptr %10, align 8
  %95 = load i32, ptr %13, align 4
  %96 = load ptr, ptr %12, align 8
  %97 = sext i32 %95 to i64
  %98 = getelementptr inbounds i8, ptr %96, i64 %97
  store ptr %98, ptr %12, align 8
  br label %99

99:                                               ; preds = %90
  %100 = load i32, ptr %19, align 4
  %101 = add nsw i32 %100, 1
  store i32 %101, ptr %19, align 4
  br label %29, !llvm.loop !7

102:                                              ; preds = %29
  ret void
}