; Function Attrs: nofree norecurse nosync nounwind memory(argmem: readwrite) uwtable
define hidden void @av1_convolve_horiz_rs_c(ptr noundef readonly captures(none) %0, i32 noundef %1, ptr noundef writeonly captures(none) %2, i32 noundef %3, i32 noundef %4, i32 noundef %5, ptr noundef readonly captures(none) %6, i32 noundef %7, i32 noundef %8) local_unnamed_addr #0 {
  %10 = icmp sgt i32 %5, 0
  br i1 %10, label %.preheader.lr.ph, label %._crit_edge41

.preheader.lr.ph:                                 ; preds = %9
  %11 = icmp sgt i32 %4, 0
  %12 = sext i32 %1 to i64
  %13 = sext i32 %3 to i64
  br i1 %11, label %.preheader.us.preheader, label %._crit_edge41

.preheader.us.preheader:                          ; preds = %.preheader.lr.ph
  %14 = getelementptr inbounds i8, ptr %0, i64 -3
  %wide.trip.count = zext nneg i32 %4 to i64
  br label %.preheader.us

.preheader.us:                                    ; preds = %.preheader.us.preheader, %._crit_edge.us
  %.02940.us = phi ptr [ %40, %._crit_edge.us ], [ %14, %.preheader.us.preheader ]
  %.03039.us = phi ptr [ %41, %._crit_edge.us ], [ %2, %.preheader.us.preheader ]
  %.03138.us = phi i32 [ %42, %._crit_edge.us ], [ 0, %.preheader.us.preheader ]
  br label %15

15:                                               ; preds = %.preheader.us, %23
  %indvars.iv44 = phi i64 [ 0, %.preheader.us ], [ %indvars.iv.next45, %23 ]
  %.03336.us = phi i32 [ %7, %.preheader.us ], [ %30, %23 ]
  %16 = ashr i32 %.03336.us, 14
  %17 = sext i32 %16 to i64
  %18 = getelementptr inbounds i8, ptr %.02940.us, i64 %17
  %19 = lshr i32 %.03336.us, 5
  %20 = and i32 %19, 504
  %21 = zext nneg i32 %20 to i64
  %22 = getelementptr inbounds nuw i16, ptr %6, i64 %21
  br label %31

23:                                               ; preds = %31
  %24 = add nsw i32 %39, 64
  %25 = ashr i32 %24, 7
  %26 = tail call i32 @llvm.smax.i32(i32 %25, i32 0)
  %27 = tail call i32 @llvm.umin.i32(i32 %26, i32 255)
  %28 = trunc nuw i32 %27 to i8
  %29 = getelementptr inbounds nuw i8, ptr %.03039.us, i64 %indvars.iv44
  store i8 %28, ptr %29, align 1
  %30 = add nsw i32 %.03336.us, %8
  %indvars.iv.next45 = add nuw nsw i64 %indvars.iv44, 1
  %exitcond47.not = icmp eq i64 %indvars.iv.next45, %wide.trip.count
  br i1 %exitcond47.not, label %._crit_edge.us, label %15, !llvm.loop !4

31:                                               ; preds = %31, %15
  %indvars.iv = phi i64 [ %indvars.iv.next, %31 ], [ 0, %15 ]
  %.02834.us = phi i32 [ %39, %31 ], [ 0, %15 ]
  %32 = getelementptr inbounds nuw i8, ptr %18, i64 %indvars.iv
  %33 = load i8, ptr %32, align 1
  %34 = zext i8 %33 to i32
  %35 = getelementptr inbounds nuw i16, ptr %22, i64 %indvars.iv
  %36 = load i16, ptr %35, align 2
  %37 = sext i16 %36 to i32
  %38 = mul nsw i32 %37, %34
  %39 = add nsw i32 %38, %.02834.us
  %indvars.iv.next = add nuw nsw i64 %indvars.iv, 1
  %exitcond.not = icmp eq i64 %indvars.iv.next, 8
  br i1 %exitcond.not, label %23, label %31, !llvm.loop !6

._crit_edge.us:                                   ; preds = %23
  %40 = getelementptr inbounds i8, ptr %.02940.us, i64 %12
  %41 = getelementptr inbounds i8, ptr %.03039.us, i64 %13
  %42 = add nuw nsw i32 %.03138.us, 1
  %exitcond48.not = icmp eq i32 %42, %5
  br i1 %exitcond48.not, label %._crit_edge41, label %.preheader.us, !llvm.loop !7

._crit_edge41:                                    ; preds = %._crit_edge.us, %.preheader.lr.ph, %9
  ret void
}